target datalayout = "e-m:e-p270:32:32-p271:32:32-p272:64:64-i64:64-i128:128-f80:128-n8:16:32:64-S128"
target triple = "x86_64-pc-linux-gnu"

%struct.nameData = type { [64 x i8] }
%struct.FormData_pg_attribute = type { i32, %struct.nameData, i32, i16, i16, i32, i16, i8, i8, i8, i8, i8, i8, i8, i8, i8, i8, i8, i16, i32 }
%struct.RelationData = type { %struct.RelFileLocator, ptr, i32, i32, i8, i8, i8, i8, i8, i32, i32, i32, i32, ptr, ptr, i32, %struct.LockInfoData, ptr, ptr, ptr, ptr, ptr, i8, ptr, ptr, ptr, ptr, ptr, ptr, i32, ptr, i8, ptr, ptr, i32, i8, i32, ptr, i8, ptr, ptr, ptr, ptr, ptr, ptr, ptr, i32, ptr, ptr, ptr, ptr, ptr, ptr, ptr, ptr, ptr, ptr, ptr, ptr, ptr, ptr, ptr, ptr, ptr, ptr, ptr, i32, i8, ptr }
%struct.RelFileLocator = type { i32, i32, i32 }
%struct.LockInfoData = type { %struct.LockRelId }
%struct.LockRelId = type { i32, i32 }
%struct.FormData_pg_class = type { i32, %struct.nameData, i32, i32, i32, i32, i32, i32, i32, i32, float, i32, i32, i8, i8, i8, i8, i16, i16, i8, i8, i8, i8, i8, i8, i8, i8, i32, i32, i32 }
%struct.ItemPointerData = type { %struct.BlockIdData, i16 }
%struct.BlockIdData = type { i16, i16 }
%struct.HeapTupleData = type { i32, %struct.ItemPointerData, i32, ptr }
%struct.HeapTupleHeaderData = type { %union.anon.0, %struct.ItemPointerData, i16, i16, i8, [0 x i8] }
%union.anon.0 = type { %struct.HeapTupleFields }
%struct.HeapTupleFields = type { i32, i32, %union.anon.1 }
%union.anon.1 = type { i32 }

@.str.1 = private unnamed_addr constant [7 x i8] c"heap.c\00", align 1
@.str.26 = private unnamed_addr constant [52 x i8] c"cache lookup failed for attribute %s of relation %u\00", align 1
@__func__.SetAttrMissing = private unnamed_addr constant [15 x i8] c"SetAttrMissing\00", align 1

; Function Attrs: inlinehint nounwind uwtable
define internal i64 @PointerGetDatum(ptr noundef %0) #5 {
  %2 = alloca ptr, align 8
  store ptr %0, ptr %2, align 8
  %3 = load ptr, ptr %2, align 8
  %4 = ptrtoint ptr %3 to i64
  ret i64 %4
}

; Function Attrs: inlinehint nounwind uwtable
define internal i64 @BoolGetDatum(i1 noundef zeroext %0) #5 {
  %2 = alloca i8, align 1
  %3 = zext i1 %0 to i8
  store i8 %3, ptr %2, align 1
  %4 = load i8, ptr %2, align 1, !range !6, !noundef !7
  %5 = trunc i8 %4 to i1
  %6 = select i1 %5, i32 1, i32 0
  %7 = sext i32 %6 to i64
  ret i64 %7
}

; Function Attrs: inlinehint nounwind uwtable
define internal i64 @Int32GetDatum(i32 noundef %0) #5 {
  %2 = alloca i32, align 4
  store i32 %0, ptr %2, align 4
  %3 = load i32, ptr %2, align 4
  %4 = sext i32 %3 to i64
  ret i64 %4
}

; Function Attrs: inlinehint nounwind uwtable
define internal i64 @ObjectIdGetDatum(i32 noundef %0) #5 {
  %2 = alloca i32, align 4
  store i32 %0, ptr %2, align 4
  %3 = load i32, ptr %2, align 4
  %4 = zext i32 %3 to i64
  ret i64 %4
}

; Function Attrs: inlinehint nounwind uwtable
define internal i64 @CStringGetDatum(ptr noundef %0) #5 {
  %2 = alloca ptr, align 8
  store ptr %0, ptr %2, align 8
  %3 = load ptr, ptr %2, align 8
  %4 = call i64 @PointerGetDatum(ptr noundef %3)
  ret i64 %4
}

; Function Attrs: inlinehint nounwind uwtable
define internal ptr @GETSTRUCT(ptr noundef %0) #5 {
  %2 = alloca ptr, align 8
  store ptr %0, ptr %2, align 8
  %3 = load ptr, ptr %2, align 8
  %4 = getelementptr inbounds nuw %struct.HeapTupleData, ptr %3, i32 0, i32 3
  %5 = load ptr, ptr %4, align 8
  %6 = load ptr, ptr %2, align 8
  %7 = getelementptr inbounds nuw %struct.HeapTupleData, ptr %6, i32 0, i32 3
  %8 = load ptr, ptr %7, align 8
  %9 = getelementptr inbounds nuw %struct.HeapTupleHeaderData, ptr %8, i32 0, i32 4
  %10 = load i8, ptr %9, align 2
  %11 = zext i8 %10 to i32
  %12 = sext i32 %11 to i64
  %13 = getelementptr inbounds i8, ptr %5, i64 %12
  ret ptr %13
}

; Function Attrs: nounwind uwtable
define dso_local void @SetAttrMissing(i32 noundef %0, ptr noundef %1, ptr noundef %2) #0 {
  %4 = alloca i32, align 4
  %5 = alloca ptr, align 8
  %6 = alloca ptr, align 8
  %7 = alloca [25 x i64], align 16
  %8 = alloca [25 x i8], align 16
  %9 = alloca [25 x i8], align 16
  %10 = alloca i64, align 8
  %11 = alloca ptr, align 8
  %12 = alloca ptr, align 8
  %13 = alloca ptr, align 8
  %14 = alloca ptr, align 8
  %15 = alloca ptr, align 8
  %16 = alloca i32, align 4
  store i32 %0, ptr %4, align 4
  store ptr %1, ptr %5, align 8
  store ptr %2, ptr %6, align 8
  call void @llvm.lifetime.start.p0(i64 200, ptr %7) #10
  call void @llvm.memset.p0.i64(ptr align 16 %7, i8 0, i64 200, i1 false)
  call void @llvm.lifetime.start.p0(i64 25, ptr %8) #10
  call void @llvm.memset.p0.i64(ptr align 16 %8, i8 0, i64 25, i1 false)
  call void @llvm.lifetime.start.p0(i64 25, ptr %9) #10
  call void @llvm.memset.p0.i64(ptr align 16 %9, i8 0, i64 25, i1 false)
  call void @llvm.lifetime.start.p0(i64 8, ptr %10) #10
  call void @llvm.lifetime.start.p0(i64 8, ptr %11) #10
  call void @llvm.lifetime.start.p0(i64 8, ptr %12) #10
  call void @llvm.lifetime.start.p0(i64 8, ptr %13) #10
  call void @llvm.lifetime.start.p0(i64 8, ptr %14) #10
  call void @llvm.lifetime.start.p0(i64 8, ptr %15) #10
  %17 = load i32, ptr %4, align 4
  %18 = call ptr @table_open(i32 noundef %17, i32 noundef 8)
  store ptr %18, ptr %13, align 8
  %19 = load ptr, ptr %13, align 8
  %20 = getelementptr inbounds nuw %struct.RelationData, ptr %19, i32 0, i32 13
  %21 = load ptr, ptr %20, align 8
  %22 = getelementptr inbounds nuw %struct.FormData_pg_class, ptr %21, i32 0, i32 16
  %23 = load i8, ptr %22, align 1
  %24 = sext i8 %23 to i32
  %25 = icmp ne i32 %24, 114
  br i1 %25, label %26, label %28

26:                                               ; preds = %3
  %27 = load ptr, ptr %13, align 8
  call void @table_close(ptr noundef %27, i32 noundef 8)
  store i32 1, ptr %16, align 4
  br label %83

28:                                               ; preds = %3
  %29 = call ptr @table_open(i32 noundef 1249, i32 noundef 3)
  store ptr %29, ptr %12, align 8
  %30 = load i32, ptr %4, align 4
  %31 = load ptr, ptr %5, align 8
  %32 = call ptr @SearchSysCacheAttName(i32 noundef %30, ptr noundef %31)
  store ptr %32, ptr %14, align 8
  %33 = load ptr, ptr %14, align 8
  %34 = icmp ne ptr %33, null
  br i1 %34, label %48, label %35

35:                                               ; preds = %28
  br label %36

36:                                               ; preds = %35
  br i1 true, label %37, label %39

37:                                               ; preds = %36
  %38 = call zeroext i1 @errstart_cold(i32 noundef 21, ptr noundef null) #9
  br i1 %38, label %41, label %45

39:                                               ; preds = %36
  %40 = call zeroext i1 @errstart(i32 noundef 21, ptr noundef null)
  br i1 %40, label %41, label %45

41:                                               ; preds = %39, %37
  %42 = load ptr, ptr %5, align 8
  %43 = load i32, ptr %4, align 4
  %44 = call i32 (ptr, ...) @errmsg_internal(ptr noundef @.str.26, ptr noundef %42, i32 noundef %43)
  call void @errfinish(ptr noundef @.str.1, i32 noundef 2046, ptr noundef @__func__.SetAttrMissing)
  br label %45

45:                                               ; preds = %41, %39, %37
  unreachable

46:                                               ; No predecessors!
  br label %47

47:                                               ; preds = %46
  br label %48

48:                                               ; preds = %47, %28
  %49 = load ptr, ptr %14, align 8
  %50 = call ptr @GETSTRUCT(ptr noundef %49)
  store ptr %50, ptr %11, align 8
  %51 = load ptr, ptr %6, align 8
  %52 = call i64 @CStringGetDatum(ptr noundef %51)
  %53 = load ptr, ptr %11, align 8
  %54 = getelementptr inbounds nuw %struct.FormData_pg_attribute, ptr %53, i32 0, i32 2
  %55 = load i32, ptr %54, align 4
  %56 = call i64 @ObjectIdGetDatum(i32 noundef %55)
  %57 = load ptr, ptr %11, align 8
  %58 = getelementptr inbounds nuw %struct.FormData_pg_attribute, ptr %57, i32 0, i32 5
  %59 = load i32, ptr %58, align 4
  %60 = call i64 @Int32GetDatum(i32 noundef %59)
  %61 = call i64 @OidFunctionCall3Coll(i32 noundef 750, i32 noundef 0, i64 noundef %52, i64 noundef %56, i64 noundef %60)
  store i64 %61, ptr %10, align 8
  %62 = call i64 @BoolGetDatum(i1 noundef zeroext true)
  %63 = getelementptr inbounds [25 x i64], ptr %7, i64 0, i64 13
  store i64 %62, ptr %63, align 8
  %64 = getelementptr inbounds [25 x i8], ptr %9, i64 0, i64 13
  store i8 1, ptr %64, align 1
  %65 = load i64, ptr %10, align 8
  %66 = getelementptr inbounds [25 x i64], ptr %7, i64 0, i64 24
  store i64 %65, ptr %66, align 16
  %67 = getelementptr inbounds [25 x i8], ptr %9, i64 0, i64 24
  store i8 1, ptr %67, align 8
  %68 = load ptr, ptr %14, align 8
  %69 = load ptr, ptr %12, align 8
  %70 = getelementptr inbounds nuw %struct.RelationData, ptr %69, i32 0, i32 14
  %71 = load ptr, ptr %70, align 8
  %72 = getelementptr inbounds [25 x i64], ptr %7, i64 0, i64 0
  %73 = getelementptr inbounds [25 x i8], ptr %8, i64 0, i64 0
  %74 = getelementptr inbounds [25 x i8], ptr %9, i64 0, i64 0
  %75 = call ptr @heap_modify_tuple(ptr noundef %68, ptr noundef %71, ptr noundef %72, ptr noundef %73, ptr noundef %74)
  store ptr %75, ptr %15, align 8
  %76 = load ptr, ptr %12, align 8
  %77 = load ptr, ptr %15, align 8
  %78 = getelementptr inbounds nuw %struct.HeapTupleData, ptr %77, i32 0, i32 1
  %79 = load ptr, ptr %15, align 8
  call void @CatalogTupleUpdate(ptr noundef %76, ptr noundef %78, ptr noundef %79)
  %80 = load ptr, ptr %14, align 8
  call void @ReleaseSysCache(ptr noundef %80)
  %81 = load ptr, ptr %12, align 8
  call void @table_close(ptr noundef %81, i32 noundef 3)
  %82 = load ptr, ptr %13, align 8
  call void @table_close(ptr noundef %82, i32 noundef 8)
  store i32 0, ptr %16, align 4
  br label %83

83:                                               ; preds = %48, %26
  call void @llvm.lifetime.end.p0(i64 8, ptr %15) #10
  call void @llvm.lifetime.end.p0(i64 8, ptr %14) #10
  call void @llvm.lifetime.end.p0(i64 8, ptr %13) #10
  call void @llvm.lifetime.end.p0(i64 8, ptr %12) #10
  call void @llvm.lifetime.end.p0(i64 8, ptr %11) #10
  call void @llvm.lifetime.end.p0(i64 8, ptr %10) #10
  call void @llvm.lifetime.end.p0(i64 25, ptr %9) #10
  call void @llvm.lifetime.end.p0(i64 25, ptr %8) #10
  call void @llvm.lifetime.end.p0(i64 200, ptr %7) #10
  %84 = load i32, ptr %16, align 4
  switch i32 %84, label %86 [
    i32 0, label %85
    i32 1, label %85
  ]

85:                                               ; preds = %83, %83
  ret void

86:                                               ; preds = %83
  unreachable
}