; Function Attrs: nounwind uwtable
define dso_local void @SetAttrMissing(i32 noundef %0, ptr noundef %1, ptr noundef %2) local_unnamed_addr #0 {
  %4 = alloca [25 x i64], align 16
  %5 = alloca [25 x i8], align 16
  %6 = alloca [25 x i8], align 16
  call void @llvm.lifetime.start.p0(i64 200, ptr nonnull %4) #11
  call void @llvm.memset.p0.i64(ptr noundef nonnull align 16 dereferenceable(200) %4, i8 0, i64 192, i1 false)
  call void @llvm.lifetime.start.p0(i64 25, ptr nonnull %5) #11
  call void @llvm.memset.p0.i64(ptr noundef nonnull align 16 dereferenceable(25) %5, i8 0, i64 25, i1 false)
  call void @llvm.lifetime.start.p0(i64 25, ptr nonnull %6) #11
  call void @llvm.memset.p0.i64(ptr noundef nonnull align 16 dereferenceable(25) %6, i8 0, i64 25, i1 false)
  %7 = tail call ptr @table_open(i32 noundef %0, i32 noundef 8) #11
  %8 = getelementptr inbounds nuw i8, ptr %7, i64 56
  %9 = load ptr, ptr %8, align 8
  %10 = getelementptr inbounds nuw i8, ptr %9, i64 115
  %11 = load i8, ptr %10, align 1
  %.not = icmp eq i8 %11, 114
  br i1 %.not, label %13, label %12

12:                                               ; preds = %3
  tail call void @table_close(ptr noundef nonnull %7, i32 noundef 8) #11
  br label %41

13:                                               ; preds = %3
  %14 = tail call ptr @table_open(i32 noundef 1249, i32 noundef 3) #11
  %15 = tail call ptr @SearchSysCacheAttName(i32 noundef %0, ptr noundef %1) #11
  %.not20 = icmp eq ptr %15, null
  br i1 %.not20, label %16, label %19

16:                                               ; preds = %13
  %17 = tail call zeroext i1 @errstart_cold(i32 noundef 21, ptr noundef null) #10
  tail call void @llvm.assume(i1 %17)
  %18 = tail call i32 (ptr, ...) @errmsg_internal(ptr noundef nonnull @.str.26, ptr noundef %1, i32 noundef %0) #11
  tail call void @errfinish(ptr noundef nonnull @.str.1, i32 noundef 2046, ptr noundef nonnull @__func__.SetAttrMissing) #11
  unreachable

19:                                               ; preds = %13
  %20 = getelementptr i8, ptr %15, i64 16
  %.val = load ptr, ptr %20, align 8
  %21 = getelementptr inbounds nuw i8, ptr %.val, i64 22
  %22 = load i8, ptr %21, align 2
  %23 = zext i8 %22 to i64
  %24 = getelementptr inbounds nuw i8, ptr %.val, i64 %23
  %25 = ptrtoint ptr %2 to i64
  %26 = getelementptr inbounds nuw i8, ptr %24, i64 68
  %27 = load i32, ptr %26, align 4
  %28 = zext i32 %27 to i64
  %29 = getelementptr inbounds nuw i8, ptr %24, i64 76
  %30 = load i32, ptr %29, align 4
  %31 = sext i32 %30 to i64
  %32 = tail call i64 @OidFunctionCall3Coll(i32 noundef 750, i32 noundef 0, i64 noundef %25, i64 noundef %28, i64 noundef %31) #11
  %33 = getelementptr inbounds nuw i8, ptr %4, i64 104
  store i64 1, ptr %33, align 8
  %34 = getelementptr inbounds nuw i8, ptr %6, i64 13
  store i8 1, ptr %34, align 1
  %35 = getelementptr inbounds nuw i8, ptr %4, i64 192
  store i64 %32, ptr %35, align 16
  %36 = getelementptr inbounds nuw i8, ptr %6, i64 24
  store i8 1, ptr %36, align 8
  %37 = getelementptr inbounds nuw i8, ptr %14, i64 64
  %38 = load ptr, ptr %37, align 8
  %39 = call ptr @heap_modify_tuple(ptr noundef nonnull %15, ptr noundef %38, ptr noundef nonnull %4, ptr noundef nonnull %5, ptr noundef nonnull %6) #11
  %40 = getelementptr inbounds nuw i8, ptr %39, i64 4
  call void @CatalogTupleUpdate(ptr noundef %14, ptr noundef nonnull %40, ptr noundef %39) #11
  call void @ReleaseSysCache(ptr noundef nonnull %15) #11
  call void @table_close(ptr noundef %14, i32 noundef 3) #11
  call void @table_close(ptr noundef nonnull %7, i32 noundef 8) #11
  br label %41

41:                                               ; preds = %19, %12
  call void @llvm.lifetime.end.p0(i64 25, ptr nonnull %6) #11
  call void @llvm.lifetime.end.p0(i64 25, ptr nonnull %5) #11
  call void @llvm.lifetime.end.p0(i64 200, ptr nonnull %4) #11
  ret void
}